target datalayout = "e-m:e-p270:32:32-p271:32:32-p272:64:64-i64:64-i128:128-f80:128-n8:16:32:64-S128"
target triple = "x86_64-pc-linux-gnu"

%struct.anon = type { i32, [0 x i8] }
%struct.varattrib_1b = type { i8, [0 x i8] }
%struct.varattrib_1b_e = type { i8, i8, [0 x i8] }
%struct.FunctionCallInfoBaseData = type { ptr, ptr, ptr, i32, i8, i16, [0 x %struct.NullableDatum] }
%struct.NullableDatum = type { i64, i8 }

; Function Attrs: inlinehint nounwind uwtable
define internal i64 @PointerGetDatum(ptr noundef %0) #0 {
  %2 = alloca ptr, align 8
  store ptr %0, ptr %2, align 8
  %3 = load ptr, ptr %2, align 8
  %4 = ptrtoint ptr %3 to i64
  ret i64 %4
}

; Function Attrs: nounwind uwtable
define internal i32 @text_cmp(ptr noundef %0, ptr noundef %1, i32 noundef %2) #1 {
  %4 = alloca ptr, align 8
  %5 = alloca ptr, align 8
  %6 = alloca i32, align 4
  %7 = alloca ptr, align 8
  %8 = alloca ptr, align 8
  %9 = alloca i32, align 4
  %10 = alloca i32, align 4
  store ptr %0, ptr %4, align 8
  store ptr %1, ptr %5, align 8
  store i32 %2, ptr %6, align 4
  call void @llvm.lifetime.start.p0(i64 8, ptr %7) #13
  call void @llvm.lifetime.start.p0(i64 8, ptr %8) #13
  call void @llvm.lifetime.start.p0(i64 4, ptr %9) #13
  call void @llvm.lifetime.start.p0(i64 4, ptr %10) #13
  %11 = load ptr, ptr %4, align 8
  %12 = getelementptr inbounds nuw %struct.varattrib_1b, ptr %11, i32 0, i32 0
  %13 = load i8, ptr %12, align 1
  %14 = zext i8 %13 to i32
  %15 = and i32 %14, 1
  %16 = icmp eq i32 %15, 1
  br i1 %16, label %17, label %21

17:                                               ; preds = %3
  %18 = load ptr, ptr %4, align 8
  %19 = getelementptr inbounds nuw %struct.varattrib_1b, ptr %18, i32 0, i32 1
  %20 = getelementptr inbounds [0 x i8], ptr %19, i64 0, i64 0
  br label %25

21:                                               ; preds = %3
  %22 = load ptr, ptr %4, align 8
  %23 = getelementptr inbounds nuw %struct.anon, ptr %22, i32 0, i32 1
  %24 = getelementptr inbounds [0 x i8], ptr %23, i64 0, i64 0
  br label %25

25:                                               ; preds = %21, %17
  %26 = phi ptr [ %20, %17 ], [ %24, %21 ]
  store ptr %26, ptr %7, align 8
  %27 = load ptr, ptr %5, align 8
  %28 = getelementptr inbounds nuw %struct.varattrib_1b, ptr %27, i32 0, i32 0
  %29 = load i8, ptr %28, align 1
  %30 = zext i8 %29 to i32
  %31 = and i32 %30, 1
  %32 = icmp eq i32 %31, 1
  br i1 %32, label %33, label %37

33:                                               ; preds = %25
  %34 = load ptr, ptr %5, align 8
  %35 = getelementptr inbounds nuw %struct.varattrib_1b, ptr %34, i32 0, i32 1
  %36 = getelementptr inbounds [0 x i8], ptr %35, i64 0, i64 0
  br label %41

37:                                               ; preds = %25
  %38 = load ptr, ptr %5, align 8
  %39 = getelementptr inbounds nuw %struct.anon, ptr %38, i32 0, i32 1
  %40 = getelementptr inbounds [0 x i8], ptr %39, i64 0, i64 0
  br label %41

41:                                               ; preds = %37, %33
  %42 = phi ptr [ %36, %33 ], [ %40, %37 ]
  store ptr %42, ptr %8, align 8
  %43 = load ptr, ptr %4, align 8
  %44 = getelementptr inbounds nuw %struct.varattrib_1b, ptr %43, i32 0, i32 0
  %45 = load i8, ptr %44, align 1
  %46 = zext i8 %45 to i32
  %47 = icmp eq i32 %46, 1
  br i1 %47, label %48, label %76

48:                                               ; preds = %41
  %49 = load ptr, ptr %4, align 8
  %50 = getelementptr inbounds nuw %struct.varattrib_1b_e, ptr %49, i32 0, i32 1
  %51 = load i8, ptr %50, align 1
  %52 = zext i8 %51 to i32
  %53 = icmp eq i32 %52, 1
  br i1 %53, label %54, label %55

54:                                               ; preds = %48
  br label %72

55:                                               ; preds = %48
  %56 = load ptr, ptr %4, align 8
  %57 = getelementptr inbounds nuw %struct.varattrib_1b_e, ptr %56, i32 0, i32 1
  %58 = load i8, ptr %57, align 1
  %59 = zext i8 %58 to i32
  %60 = and i32 %59, -2
  %61 = icmp eq i32 %60, 2
  br i1 %61, label %62, label %63

62:                                               ; preds = %55
  br label %70

63:                                               ; preds = %55
  %64 = load ptr, ptr %4, align 8
  %65 = getelementptr inbounds nuw %struct.varattrib_1b_e, ptr %64, i32 0, i32 1
  %66 = load i8, ptr %65, align 1
  %67 = zext i8 %66 to i32
  %68 = icmp eq i32 %67, 18
  %69 = select i1 %68, i64 16, i64 0
  br label %70

70:                                               ; preds = %63, %62
  %71 = phi i64 [ 8, %62 ], [ %69, %63 ]
  br label %72

72:                                               ; preds = %70, %54
  %73 = phi i64 [ 8, %54 ], [ %71, %70 ]
  %74 = add i64 2, %73
  %75 = sub i64 %74, 2
  br label %102

76:                                               ; preds = %41
  %77 = load ptr, ptr %4, align 8
  %78 = getelementptr inbounds nuw %struct.varattrib_1b, ptr %77, i32 0, i32 0
  %79 = load i8, ptr %78, align 1
  %80 = zext i8 %79 to i32
  %81 = and i32 %80, 1
  %82 = icmp eq i32 %81, 1
  br i1 %82, label %83, label %92

83:                                               ; preds = %76
  %84 = load ptr, ptr %4, align 8
  %85 = getelementptr inbounds nuw %struct.varattrib_1b, ptr %84, i32 0, i32 0
  %86 = load i8, ptr %85, align 1
  %87 = zext i8 %86 to i32
  %88 = ashr i32 %87, 1
  %89 = and i32 %88, 127
  %90 = sext i32 %89 to i64
  %91 = sub i64 %90, 1
  br label %100

92:                                               ; preds = %76
  %93 = load ptr, ptr %4, align 8
  %94 = getelementptr inbounds nuw %struct.anon, ptr %93, i32 0, i32 0
  %95 = load i32, ptr %94, align 4
  %96 = lshr i32 %95, 2
  %97 = and i32 %96, 1073741823
  %98 = sub i32 %97, 4
  %99 = zext i32 %98 to i64
  br label %100

100:                                              ; preds = %92, %83
  %101 = phi i64 [ %91, %83 ], [ %99, %92 ]
  br label %102

102:                                              ; preds = %100, %72
  %103 = phi i64 [ %75, %72 ], [ %101, %100 ]
  %104 = trunc i64 %103 to i32
  store i32 %104, ptr %9, align 4
  %105 = load ptr, ptr %5, align 8
  %106 = getelementptr inbounds nuw %struct.varattrib_1b, ptr %105, i32 0, i32 0
  %107 = load i8, ptr %106, align 1
  %108 = zext i8 %107 to i32
  %109 = icmp eq i32 %108, 1
  br i1 %109, label %110, label %138

110:                                              ; preds = %102
  %111 = load ptr, ptr %5, align 8
  %112 = getelementptr inbounds nuw %struct.varattrib_1b_e, ptr %111, i32 0, i32 1
  %113 = load i8, ptr %112, align 1
  %114 = zext i8 %113 to i32
  %115 = icmp eq i32 %114, 1
  br i1 %115, label %116, label %117

116:                                              ; preds = %110
  br label %134

117:                                              ; preds = %110
  %118 = load ptr, ptr %5, align 8
  %119 = getelementptr inbounds nuw %struct.varattrib_1b_e, ptr %118, i32 0, i32 1
  %120 = load i8, ptr %119, align 1
  %121 = zext i8 %120 to i32
  %122 = and i32 %121, -2
  %123 = icmp eq i32 %122, 2
  br i1 %123, label %124, label %125

124:                                              ; preds = %117
  br label %132

125:                                              ; preds = %117
  %126 = load ptr, ptr %5, align 8
  %127 = getelementptr inbounds nuw %struct.varattrib_1b_e, ptr %126, i32 0, i32 1
  %128 = load i8, ptr %127, align 1
  %129 = zext i8 %128 to i32
  %130 = icmp eq i32 %129, 18
  %131 = select i1 %130, i64 16, i64 0
  br label %132

132:                                              ; preds = %125, %124
  %133 = phi i64 [ 8, %124 ], [ %131, %125 ]
  br label %134

134:                                              ; preds = %132, %116
  %135 = phi i64 [ 8, %116 ], [ %133, %132 ]
  %136 = add i64 2, %135
  %137 = sub i64 %136, 2
  br label %164

138:                                              ; preds = %102
  %139 = load ptr, ptr %5, align 8
  %140 = getelementptr inbounds nuw %struct.varattrib_1b, ptr %139, i32 0, i32 0
  %141 = load i8, ptr %140, align 1
  %142 = zext i8 %141 to i32
  %143 = and i32 %142, 1
  %144 = icmp eq i32 %143, 1
  br i1 %144, label %145, label %154

145:                                              ; preds = %138
  %146 = load ptr, ptr %5, align 8
  %147 = getelementptr inbounds nuw %struct.varattrib_1b, ptr %146, i32 0, i32 0
  %148 = load i8, ptr %147, align 1
  %149 = zext i8 %148 to i32
  %150 = ashr i32 %149, 1
  %151 = and i32 %150, 127
  %152 = sext i32 %151 to i64
  %153 = sub i64 %152, 1
  br label %162

154:                                              ; preds = %138
  %155 = load ptr, ptr %5, align 8
  %156 = getelementptr inbounds nuw %struct.anon, ptr %155, i32 0, i32 0
  %157 = load i32, ptr %156, align 4
  %158 = lshr i32 %157, 2
  %159 = and i32 %158, 1073741823
  %160 = sub i32 %159, 4
  %161 = zext i32 %160 to i64
  br label %162

162:                                              ; preds = %154, %145
  %163 = phi i64 [ %153, %145 ], [ %161, %154 ]
  br label %164

164:                                              ; preds = %162, %134
  %165 = phi i64 [ %137, %134 ], [ %163, %162 ]
  %166 = trunc i64 %165 to i32
  store i32 %166, ptr %10, align 4
  %167 = load ptr, ptr %7, align 8
  %168 = load i32, ptr %9, align 4
  %169 = load ptr, ptr %8, align 8
  %170 = load i32, ptr %10, align 4
  %171 = load i32, ptr %6, align 4
  %172 = call i32 @varstr_cmp(ptr noundef %167, i32 noundef %168, ptr noundef %169, i32 noundef %170, i32 noundef %171)
  call void @llvm.lifetime.end.p0(i64 4, ptr %10) #13
  call void @llvm.lifetime.end.p0(i64 4, ptr %9) #13
  call void @llvm.lifetime.end.p0(i64 8, ptr %8) #13
  call void @llvm.lifetime.end.p0(i64 8, ptr %7) #13
  ret i32 %172
}

; Function Attrs: inlinehint nounwind uwtable
define internal ptr @DatumGetPointer(i64 noundef %0) #0 {
  %2 = alloca i64, align 8
  store i64 %0, ptr %2, align 8
  %3 = load i64, ptr %2, align 8
  %4 = inttoptr i64 %3 to ptr
  ret ptr %4
}

; Function Attrs: nounwind uwtable
define dso_local i64 @text_larger(ptr noundef %0) #1 {
  %2 = alloca ptr, align 8
  %3 = alloca ptr, align 8
  %4 = alloca ptr, align 8
  %5 = alloca ptr, align 8
  store ptr %0, ptr %2, align 8
  call void @llvm.lifetime.start.p0(i64 8, ptr %3) #13
  %6 = load ptr, ptr %2, align 8
  %7 = getelementptr inbounds nuw %struct.FunctionCallInfoBaseData, ptr %6, i32 0, i32 6
  %8 = getelementptr inbounds [0 x %struct.NullableDatum], ptr %7, i64 0, i64 0
  %9 = getelementptr inbounds nuw %struct.NullableDatum, ptr %8, i32 0, i32 0
  %10 = load i64, ptr %9, align 8
  %11 = call ptr @DatumGetPointer(i64 noundef %10)
  %12 = call ptr @pg_detoast_datum_packed(ptr noundef %11)
  store ptr %12, ptr %3, align 8
  call void @llvm.lifetime.start.p0(i64 8, ptr %4) #13
  %13 = load ptr, ptr %2, align 8
  %14 = getelementptr inbounds nuw %struct.FunctionCallInfoBaseData, ptr %13, i32 0, i32 6
  %15 = getelementptr inbounds [0 x %struct.NullableDatum], ptr %14, i64 0, i64 1
  %16 = getelementptr inbounds nuw %struct.NullableDatum, ptr %15, i32 0, i32 0
  %17 = load i64, ptr %16, align 8
  %18 = call ptr @DatumGetPointer(i64 noundef %17)
  %19 = call ptr @pg_detoast_datum_packed(ptr noundef %18)
  store ptr %19, ptr %4, align 8
  call void @llvm.lifetime.start.p0(i64 8, ptr %5) #13
  %20 = load ptr, ptr %3, align 8
  %21 = load ptr, ptr %4, align 8
  %22 = load ptr, ptr %2, align 8
  %23 = getelementptr inbounds nuw %struct.FunctionCallInfoBaseData, ptr %22, i32 0, i32 3
  %24 = load i32, ptr %23, align 8
  %25 = call i32 @text_cmp(ptr noundef %20, ptr noundef %21, i32 noundef %24)
  %26 = icmp sgt i32 %25, 0
  br i1 %26, label %27, label %29

27:                                               ; preds = %1
  %28 = load ptr, ptr %3, align 8
  br label %31

29:                                               ; preds = %1
  %30 = load ptr, ptr %4, align 8
  br label %31

31:                                               ; preds = %29, %27
  %32 = phi ptr [ %28, %27 ], [ %30, %29 ]
  store ptr %32, ptr %5, align 8
  %33 = load ptr, ptr %5, align 8
  %34 = call i64 @PointerGetDatum(ptr noundef %33)
  call void @llvm.lifetime.end.p0(i64 8, ptr %5) #13
  call void @llvm.lifetime.end.p0(i64 8, ptr %4) #13
  call void @llvm.lifetime.end.p0(i64 8, ptr %3) #13
  ret i64 %34
}